target datalayout = "e-m:e-p270:32:32-p271:32:32-p272:64:64-i64:64-i128:128-f80:128-n8:16:32:64-S128"
target triple = "x86_64-pc-linux-gnu"

%"struct.std::hash.1127" = type { i8 }
%"class.std::thread::id" = type { i64 }

; Function Attrs: mustprogress uwtable
define linkonce_odr noundef i64 @_ZNSt10_Hash_impl4hashEPKvmm(ptr noundef %0, i64 noundef %1, i64 noundef %2) #0 comdat align 2 {
  %4 = alloca ptr, align 8
  %5 = alloca i64, align 8
  %6 = alloca i64, align 8
  store ptr %0, ptr %4, align 8, !tbaa !181
  store i64 %1, ptr %5, align 8, !tbaa !150
  store i64 %2, ptr %6, align 8, !tbaa !150
  %7 = load ptr, ptr %4, align 8, !tbaa !181
  %8 = load i64, ptr %5, align 8, !tbaa !150
  %9 = load i64, ptr %6, align 8, !tbaa !150
  %10 = call noundef i64 @_ZSt11_Hash_bytesPKvmm(ptr noundef %7, i64 noundef %8, i64 noundef %9)
  ret i64 %10
}

; Function Attrs: mustprogress uwtable
define linkonce_odr noundef i64 @_ZNSt10_Hash_impl4hashImEEmRKT_(ptr noundef nonnull align 8 dereferenceable(8) %0) #0 comdat align 2 {
  %2 = alloca ptr, align 8
  store ptr %0, ptr %2, align 8, !tbaa !577
  %3 = load ptr, ptr %2, align 8, !tbaa !577
  %4 = call noundef i64 @_ZNSt10_Hash_impl4hashEPKvmm(ptr noundef %3, i64 noundef 8, i64 noundef 3339675911)
  ret i64 %4
}

; Function Attrs: mustprogress nounwind uwtable
define linkonce_odr void @_ZNSt6thread2idC2Em(ptr noundef nonnull align 8 dereferenceable(8) %0, i64 noundef %1) unnamed_addr #1 comdat align 2 {
  %3 = alloca ptr, align 8
  %4 = alloca i64, align 8
  store ptr %0, ptr %3, align 8, !tbaa !1329
  store i64 %1, ptr %4, align 8, !tbaa !150
  %5 = load ptr, ptr %3, align 8
  %6 = getelementptr inbounds nuw %"class.std::thread::id", ptr %5, i32 0, i32 0
  %7 = load i64, ptr %4, align 8, !tbaa !150
  store i64 %7, ptr %6, align 8, !tbaa !2355
  ret void
}

; Function Attrs: mustprogress nounwind uwtable
define linkonce_odr noundef i64 @_ZNKSt4hashINSt6thread2idEEclERKS1_(ptr noundef nonnull align 1 dereferenceable(1) %0, ptr noundef nonnull align 8 dereferenceable(8) %1) #1 comdat align 2 personality ptr @__gxx_personality_v0 {
  %3 = alloca ptr, align 8
  %4 = alloca ptr, align 8
  store ptr %0, ptr %3, align 8, !tbaa !1327
  store ptr %1, ptr %4, align 8, !tbaa !1329
  %5 = load ptr, ptr %4, align 8, !tbaa !1329
  %6 = getelementptr inbounds nuw %"class.std::thread::id", ptr %5, i32 0, i32 0
  %7 = invoke noundef i64 @_ZNSt10_Hash_impl4hashImEEmRKT_(ptr noundef nonnull align 8 dereferenceable(8) %6)
          to label %8 unwind label %9

8:                                                ; preds = %2
  ret i64 %7

9:                                                ; preds = %2
  %10 = landingpad { ptr, i32 }
          catch ptr null
  %11 = extractvalue { ptr, i32 } %10, 0
  call void @__clang_call_terminate(ptr %11) #25
  unreachable
}

; Function Attrs: inlinehint mustprogress nounwind uwtable
define linkonce_odr i64 @_ZNSt11this_thread6get_idEv() #3 comdat personality ptr @__gxx_personality_v0 {
  %1 = alloca %"class.std::thread::id", align 8
  %2 = call i64 @pthread_self() #29
  invoke void @_ZNSt6thread2idC2Em(ptr noundef nonnull align 8 dereferenceable(8) %1, i64 noundef %2)
          to label %3 unwind label %6

3:                                                ; preds = %0
  %4 = getelementptr inbounds nuw %"class.std::thread::id", ptr %1, i32 0, i32 0
  %5 = load i64, ptr %4, align 8
  ret i64 %5

6:                                                ; preds = %0
  %7 = landingpad { ptr, i32 }
          catch ptr null
  %8 = extractvalue { ptr, i32 } %7, 0
  call void @__clang_call_terminate(ptr %8) #25
  unreachable
}

; Function Attrs: mustprogress nounwind uwtable
define noundef i64 @_ZN6duckdb13TaskScheduler17GetEstimatedCPUIdEv() #1 align 2 {
  %1 = alloca i64, align 8
  %2 = alloca i32, align 4
  %3 = alloca %"struct.std::hash.1127", align 1
  %4 = alloca %"class.std::thread::id", align 8
  %5 = alloca i32, align 4
  call void @llvm.lifetime.start.p0(i64 4, ptr %2) #24
  %6 = call i32 @sched_getcpu() #24
  store i32 %6, ptr %2, align 4, !tbaa !189
  %7 = load i32, ptr %2, align 4, !tbaa !189
  %8 = icmp slt i32 %7, 0
  br i1 %8, label %9, label %13

9:                                                ; preds = %0
  call void @llvm.lifetime.start.p0(i64 1, ptr %3) #24
  call void @llvm.lifetime.start.p0(i64 8, ptr %4) #24
  %10 = call i64 @_ZNSt11this_thread6get_idEv() #24
  %11 = getelementptr inbounds nuw %"class.std::thread::id", ptr %4, i32 0, i32 0
  store i64 %10, ptr %11, align 8
  %12 = call noundef i64 @_ZNKSt4hashINSt6thread2idEEclERKS1_(ptr noundef nonnull align 1 dereferenceable(1) %3, ptr noundef nonnull align 8 dereferenceable(8) %4) #24
  store i64 %12, ptr %1, align 8
  call void @llvm.lifetime.end.p0(i64 8, ptr %4) #24
  call void @llvm.lifetime.end.p0(i64 1, ptr %3) #24
  store i32 1, ptr %5, align 4
  br label %16

13:                                               ; preds = %0
  %14 = load i32, ptr %2, align 4, !tbaa !189
  %15 = sext i32 %14 to i64
  store i64 %15, ptr %1, align 8
  store i32 1, ptr %5, align 4
  br label %16

16:                                               ; preds = %13, %9
  call void @llvm.lifetime.end.p0(i64 4, ptr %2) #24
  %17 = load i64, ptr %1, align 8
  ret i64 %17
}