; Function Attrs: mustprogress nounwind uwtable
define noundef i64 @_ZN6duckdb13TaskScheduler17GetEstimatedCPUIdEv() local_unnamed_addr #4 align 2 personality ptr @__gxx_personality_v0 {
  %1 = alloca %"class.std::thread::id", align 8
  %2 = tail call i32 @sched_getcpu() #35
  %3 = icmp slt i32 %2, 0
  br i1 %3, label %4, label %10

4:                                                ; preds = %0
  call void @llvm.lifetime.start.p0(i64 8, ptr nonnull %1) #35
  %5 = tail call i64 @pthread_self() #41
  store i64 %5, ptr %1, align 8
  %6 = invoke noundef i64 @_ZSt11_Hash_bytesPKvmm(ptr noundef nonnull align 8 dereferenceable(8) %1, i64 noundef 8, i64 noundef 3339675911)
          to label %_ZNKSt4hashINSt6thread2idEEclERKS1_.exit unwind label %7

7:                                                ; preds = %4
  %8 = landingpad { ptr, i32 }
          catch ptr null
  %9 = extractvalue { ptr, i32 } %8, 0
  call void @__clang_call_terminate(ptr %9) #39
  unreachable

_ZNKSt4hashINSt6thread2idEEclERKS1_.exit:         ; preds = %4
  call void @llvm.lifetime.end.p0(i64 8, ptr nonnull %1) #35
  br label %12

10:                                               ; preds = %0
  %11 = zext nneg i32 %2 to i64
  br label %12

12:                                               ; preds = %10, %_ZNKSt4hashINSt6thread2idEEclERKS1_.exit
  %.0 = phi i64 [ %6, %_ZNKSt4hashINSt6thread2idEEclERKS1_.exit ], [ %11, %10 ]
  ret i64 %.0
}